; Function Attrs: mustprogress nofree nounwind willreturn uwtable
define void @_ZN7RarTime8SetLocalEP12RarLocalTime(ptr noundef nonnull writeonly align 8 captures(none) dereferenceable(8) initializes((0, 8)) %0, ptr noundef readonly captures(none) %1) local_unnamed_addr #4 align 2 {
  %3 = alloca %struct.tm, align 8
  call void @llvm.lifetime.start.p0(i64 56, ptr nonnull %3) #13
  %4 = getelementptr inbounds nuw i8, ptr %1, i64 20
  %5 = load i32, ptr %4, align 4, !tbaa !25
  store i32 %5, ptr %3, align 8, !tbaa !24
  %6 = getelementptr inbounds nuw i8, ptr %1, i64 16
  %7 = load i32, ptr %6, align 4, !tbaa !23
  %8 = getelementptr inbounds nuw i8, ptr %3, i64 4
  store i32 %7, ptr %8, align 4, !tbaa !22
  %9 = getelementptr inbounds nuw i8, ptr %1, i64 12
  %10 = load i32, ptr %9, align 4, !tbaa !21
  %11 = getelementptr inbounds nuw i8, ptr %3, i64 8
  store i32 %10, ptr %11, align 8, !tbaa !20
  %12 = getelementptr inbounds nuw i8, ptr %1, i64 8
  %13 = load i32, ptr %12, align 4, !tbaa !19
  %14 = getelementptr inbounds nuw i8, ptr %3, i64 12
  store i32 %13, ptr %14, align 4, !tbaa !18
  %15 = getelementptr inbounds nuw i8, ptr %1, i64 4
  %16 = load i32, ptr %15, align 4, !tbaa !17
  %17 = add i32 %16, -1
  %18 = getelementptr inbounds nuw i8, ptr %3, i64 16
  store i32 %17, ptr %18, align 8, !tbaa !16
  %19 = load i32, ptr %1, align 4, !tbaa !14
  %20 = add i32 %19, -1900
  %21 = getelementptr inbounds nuw i8, ptr %3, i64 20
  store i32 %20, ptr %21, align 4, !tbaa !9
  %22 = getelementptr inbounds nuw i8, ptr %3, i64 32
  store i32 -1, ptr %22, align 8, !tbaa !31
  %23 = call i64 @mktime(ptr noundef nonnull %3) #13
  %24 = mul i64 %23, 1000000000
  %25 = add i64 %24, -6802270473709551616
  %26 = getelementptr inbounds nuw i8, ptr %1, i64 24
  %27 = load i32, ptr %26, align 4, !tbaa !30
  %28 = zext i32 %27 to i64
  %29 = add i64 %25, %28
  store i64 %29, ptr %0, align 8, !tbaa !3
  call void @llvm.lifetime.end.p0(i64 56, ptr nonnull %3) #13
  ret void
}